; Function Attrs: mustprogress uwtable
define hidden noundef zeroext i1 @_ZNK11OpenImageIO6v3_1_05CSHA113ReportHashStlERNSt7__cxx1112basic_stringIcSt11char_traitsIcESaIcEEENS1_11REPORT_TYPEE(ptr noundef nonnull readonly align 8 captures(none) dereferenceable(200) %0, ptr noundef nonnull align 8 dereferenceable(32) %1, i32 noundef %2) local_unnamed_addr #4 align 2 {
  %4 = alloca [84 x i8], align 16
  call void @llvm.lifetime.start.p0(i64 84, ptr nonnull %4) #22
  %5 = call noundef zeroext i1 @_ZNK11OpenImageIO6v3_1_05CSHA110ReportHashEPcNS1_11REPORT_TYPEE(ptr noundef nonnull align 8 dereferenceable(200) %0, ptr noundef nonnull %4, i32 noundef %2)
  br i1 %5, label %6, label %11

6:                                                ; preds = %3
  %7 = getelementptr inbounds nuw i8, ptr %1, i64 8
  %8 = load i64, ptr %7, align 8, !tbaa !29
  %9 = call noundef i64 @strlen(ptr noundef nonnull dereferenceable(1) %4) #22
  %10 = call noundef nonnull align 8 dereferenceable(32) ptr @_ZNSt7__cxx1112basic_stringIcSt11char_traitsIcESaIcEE10_M_replaceEmmPKcm(ptr noundef nonnull align 8 dereferenceable(32) %1, i64 noundef 0, i64 noundef %8, ptr noundef nonnull %4, i64 noundef %9)
  br label %11

11:                                               ; preds = %6, %3
  call void @llvm.lifetime.end.p0(i64 84, ptr nonnull %4) #22
  ret i1 %5
}